target datalayout = "e-m:e-p270:32:32-p271:32:32-p272:64:64-i64:64-i128:128-f80:128-n8:16:32:64-S128"
target triple = "x86_64-pc-linux-gnu"

%struct.Gia_Man_t_ = type { ptr, ptr, i32, i32, i32, i32, ptr, ptr, i32, i32, i32, ptr, ptr, %struct.Vec_Int_t_, %struct.Vec_Int_t_, i32, i32, i32, %struct.Vec_Int_t_, ptr, ptr, ptr, i32, i32, i32, i32, ptr, ptr, ptr, ptr, ptr, i32, i32, ptr, i32, ptr, ptr, ptr, ptr, ptr, ptr, ptr, ptr, ptr, ptr, ptr, ptr, ptr, ptr, ptr, ptr, ptr, ptr, %struct.Vec_Int_t_, %struct.Vec_Int_t_, ptr, ptr, ptr, ptr, ptr, ptr, ptr, ptr, ptr, ptr, ptr, ptr, ptr, ptr, ptr, ptr, ptr, ptr, ptr, ptr, ptr, i32, float, float, ptr, ptr, i32, ptr, ptr, ptr, ptr, ptr, ptr, ptr, ptr, ptr, ptr, ptr, ptr, ptr, ptr, ptr, i64, i64, ptr, ptr, i32, i32, i32, i32, i32, i32, i32, i32, i32, i32, i32, i32, ptr, ptr, ptr, ptr, ptr, ptr, ptr, ptr, i32, i32, i32, ptr, i32, i32, ptr, ptr, ptr, ptr, ptr, ptr, i32, i32, ptr, %struct.Vec_Int_t_, %struct.Vec_Int_t_, %struct.Vec_Int_t_, ptr, ptr, ptr, i32, i32, i32, i32, ptr, ptr, ptr, ptr, ptr }
%struct.Vec_Int_t_ = type { i32, i32, ptr }
%struct.Gia_Obj_t_ = type <{ i64, i32 }>

; Function Attrs: inlinehint nounwind uwtable
define internal i32 @Gia_IsComplement(ptr noundef %0) #1 {
  %2 = alloca ptr, align 8
  store ptr %0, ptr %2, align 8, !tbaa !12
  %3 = load ptr, ptr %2, align 8, !tbaa !12
  %4 = ptrtoint ptr %3 to i64
  %5 = and i64 %4, 1
  %6 = trunc i64 %5 to i32
  ret i32 %6
}

; Function Attrs: inlinehint nounwind uwtable
define internal i32 @Gia_ObjId(ptr noundef %0, ptr noundef %1) #1 {
  %3 = alloca ptr, align 8
  %4 = alloca ptr, align 8
  store ptr %0, ptr %3, align 8, !tbaa !3
  store ptr %1, ptr %4, align 8, !tbaa !12
  %5 = load ptr, ptr %4, align 8, !tbaa !12
  %6 = load ptr, ptr %3, align 8, !tbaa !3
  %7 = getelementptr inbounds nuw %struct.Gia_Man_t_, ptr %6, i32 0, i32 6
  %8 = load ptr, ptr %7, align 8, !tbaa !46
  %9 = ptrtoint ptr %5 to i64
  %10 = ptrtoint ptr %8 to i64
  %11 = sub i64 %9, %10
  %12 = sdiv exact i64 %11, 12
  %13 = trunc i64 %12 to i32
  ret i32 %13
}

; Function Attrs: inlinehint nounwind uwtable
define internal ptr @Gia_Regular(ptr noundef %0) #1 {
  %2 = alloca ptr, align 8
  store ptr %0, ptr %2, align 8, !tbaa !12
  %3 = load ptr, ptr %2, align 8, !tbaa !12
  %4 = ptrtoint ptr %3 to i64
  %5 = and i64 %4, -2
  %6 = inttoptr i64 %5 to ptr
  ret ptr %6
}

; Function Attrs: inlinehint nounwind uwtable
define internal ptr @Gia_NotCond(ptr noundef %0, i32 noundef %1) #1 {
  %3 = alloca ptr, align 8
  %4 = alloca i32, align 4
  store ptr %0, ptr %3, align 8, !tbaa !12
  store i32 %1, ptr %4, align 4, !tbaa !8
  %5 = load ptr, ptr %3, align 8, !tbaa !12
  %6 = ptrtoint ptr %5 to i64
  %7 = load i32, ptr %4, align 4, !tbaa !8
  %8 = sext i32 %7 to i64
  %9 = xor i64 %6, %8
  %10 = inttoptr i64 %9 to ptr
  ret ptr %10
}

; Function Attrs: inlinehint nounwind uwtable
define internal i32 @Abc_LitIsCompl(i32 noundef %0) #1 {
  %2 = alloca i32, align 4
  store i32 %0, ptr %2, align 4, !tbaa !8
  %3 = load i32, ptr %2, align 4, !tbaa !8
  %4 = and i32 %3, 1
  ret i32 %4
}

; Function Attrs: inlinehint nounwind uwtable
define internal ptr @Gia_ManObj(ptr noundef %0, i32 noundef %1) #1 {
  %3 = alloca ptr, align 8
  %4 = alloca i32, align 4
  store ptr %0, ptr %3, align 8, !tbaa !3
  store i32 %1, ptr %4, align 4, !tbaa !8
  %5 = load ptr, ptr %3, align 8, !tbaa !3
  %6 = getelementptr inbounds nuw %struct.Gia_Man_t_, ptr %5, i32 0, i32 6
  %7 = load ptr, ptr %6, align 8, !tbaa !46
  %8 = load i32, ptr %4, align 4, !tbaa !8
  %9 = sext i32 %8 to i64
  %10 = getelementptr inbounds %struct.Gia_Obj_t_, ptr %7, i64 %9
  ret ptr %10
}

; Function Attrs: inlinehint nounwind uwtable
define internal i32 @Abc_Lit2Var(i32 noundef %0) #1 {
  %2 = alloca i32, align 4
  store i32 %0, ptr %2, align 4, !tbaa !8
  %3 = load i32, ptr %2, align 4, !tbaa !8
  %4 = ashr i32 %3, 1
  ret i32 %4
}

; Function Attrs: inlinehint nounwind uwtable
define internal i32 @Vec_IntCap(ptr noundef %0) #1 {
  %2 = alloca ptr, align 8
  store ptr %0, ptr %2, align 8, !tbaa !35
  %3 = load ptr, ptr %2, align 8, !tbaa !35
  %4 = getelementptr inbounds nuw %struct.Vec_Int_t_, ptr %3, i32 0, i32 0
  %5 = load i32, ptr %4, align 8, !tbaa !44
  ret i32 %5
}

; Function Attrs: inlinehint nounwind uwtable
define internal i32 @Abc_Var2Lit(i32 noundef %0, i32 noundef %1) #1 {
  %3 = alloca i32, align 4
  %4 = alloca i32, align 4
  store i32 %0, ptr %3, align 4, !tbaa !8
  store i32 %1, ptr %4, align 4, !tbaa !8
  %5 = load i32, ptr %3, align 4, !tbaa !8
  %6 = load i32, ptr %3, align 4, !tbaa !8
  %7 = add nsw i32 %5, %6
  %8 = load i32, ptr %4, align 4, !tbaa !8
  %9 = add nsw i32 %7, %8
  ret i32 %9
}

; Function Attrs: inlinehint nounwind uwtable
define internal i32 @Gia_ObjToLit(ptr noundef %0, ptr noundef %1) #1 {
  %3 = alloca ptr, align 8
  %4 = alloca ptr, align 8
  store ptr %0, ptr %3, align 8, !tbaa !3
  store ptr %1, ptr %4, align 8, !tbaa !12
  %5 = load ptr, ptr %3, align 8, !tbaa !3
  %6 = load ptr, ptr %4, align 8, !tbaa !12
  %7 = call ptr @Gia_Regular(ptr noundef %6)
  %8 = call i32 @Gia_ObjId(ptr noundef %5, ptr noundef %7)
  %9 = load ptr, ptr %4, align 8, !tbaa !12
  %10 = call i32 @Gia_IsComplement(ptr noundef %9)
  %11 = call i32 @Abc_Var2Lit(i32 noundef %8, i32 noundef %10)
  ret i32 %11
}

; Function Attrs: inlinehint nounwind uwtable
define internal ptr @Gia_ObjFromLit(ptr noundef %0, i32 noundef %1) #1 {
  %3 = alloca ptr, align 8
  %4 = alloca i32, align 4
  store ptr %0, ptr %3, align 8, !tbaa !3
  store i32 %1, ptr %4, align 4, !tbaa !8
  %5 = load ptr, ptr %3, align 8, !tbaa !3
  %6 = load i32, ptr %4, align 4, !tbaa !8
  %7 = call i32 @Abc_Lit2Var(i32 noundef %6)
  %8 = call ptr @Gia_ManObj(ptr noundef %5, i32 noundef %7)
  %9 = load i32, ptr %4, align 4, !tbaa !8
  %10 = call i32 @Abc_LitIsCompl(i32 noundef %9)
  %11 = call ptr @Gia_NotCond(ptr noundef %8, i32 noundef %10)
  ret ptr %11
}

; Function Attrs: inlinehint nounwind uwtable
define internal i32 @Gia_ManAndNum(ptr noundef %0) #1 {
  %2 = alloca ptr, align 8
  store ptr %0, ptr %2, align 8, !tbaa !3
  %3 = load ptr, ptr %2, align 8, !tbaa !3
  %4 = getelementptr inbounds nuw %struct.Gia_Man_t_, ptr %3, i32 0, i32 4
  %5 = load i32, ptr %4, align 8, !tbaa !41
  %6 = load ptr, ptr %2, align 8, !tbaa !3
  %7 = getelementptr inbounds nuw %struct.Gia_Man_t_, ptr %6, i32 0, i32 11
  %8 = load ptr, ptr %7, align 8, !tbaa !42
  %9 = call i32 @Vec_IntSize(ptr noundef %8)
  %10 = sub nsw i32 %5, %9
  %11 = load ptr, ptr %2, align 8, !tbaa !3
  %12 = getelementptr inbounds nuw %struct.Gia_Man_t_, ptr %11, i32 0, i32 12
  %13 = load ptr, ptr %12, align 8, !tbaa !43
  %14 = call i32 @Vec_IntSize(ptr noundef %13)
  %15 = sub nsw i32 %10, %14
  %16 = sub nsw i32 %15, 1
  ret i32 %16
}

; Function Attrs: inlinehint nounwind uwtable
define internal i32 @Vec_IntSize(ptr noundef %0) #1 {
  %2 = alloca ptr, align 8
  store ptr %0, ptr %2, align 8, !tbaa !35
  %3 = load ptr, ptr %2, align 8, !tbaa !35
  %4 = getelementptr inbounds nuw %struct.Vec_Int_t_, ptr %3, i32 0, i32 1
  %5 = load i32, ptr %4, align 4, !tbaa !38
  ret i32 %5
}

; Function Attrs: inlinehint nounwind uwtable
define internal i32 @Abc_LitNot(i32 noundef %0) #1 {
  %2 = alloca i32, align 4
  store i32 %0, ptr %2, align 4, !tbaa !8
  %3 = load i32, ptr %2, align 4, !tbaa !8
  %4 = xor i32 %3, 1
  ret i32 %4
}

; Function Attrs: nounwind uwtable
define i32 @Gia_ManHashAnd(ptr noundef %0, i32 noundef %1, i32 noundef %2) #0 {
  %4 = alloca i32, align 4
  %5 = alloca ptr, align 8
  %6 = alloca i32, align 4
  %7 = alloca i32, align 4
  %8 = alloca ptr, align 8
  %9 = alloca i32, align 4
  %10 = alloca ptr, align 8
  %11 = alloca i32, align 4
  store ptr %0, ptr %5, align 8, !tbaa !3
  store i32 %1, ptr %6, align 4, !tbaa !8
  store i32 %2, ptr %7, align 4, !tbaa !8
  %12 = load i32, ptr %6, align 4, !tbaa !8
  %13 = icmp slt i32 %12, 2
  br i1 %13, label %14, label %22

14:                                               ; preds = %3
  %15 = load i32, ptr %6, align 4, !tbaa !8
  %16 = icmp ne i32 %15, 0
  br i1 %16, label %17, label %19

17:                                               ; preds = %14
  %18 = load i32, ptr %7, align 4, !tbaa !8
  br label %20

19:                                               ; preds = %14
  br label %20

20:                                               ; preds = %19, %17
  %21 = phi i32 [ %18, %17 ], [ 0, %19 ]
  store i32 %21, ptr %4, align 4
  br label %161

22:                                               ; preds = %3
  %23 = load i32, ptr %7, align 4, !tbaa !8
  %24 = icmp slt i32 %23, 2
  br i1 %24, label %25, label %33

25:                                               ; preds = %22
  %26 = load i32, ptr %7, align 4, !tbaa !8
  %27 = icmp ne i32 %26, 0
  br i1 %27, label %28, label %30

28:                                               ; preds = %25
  %29 = load i32, ptr %6, align 4, !tbaa !8
  br label %31

30:                                               ; preds = %25
  br label %31

31:                                               ; preds = %30, %28
  %32 = phi i32 [ %29, %28 ], [ 0, %30 ]
  store i32 %32, ptr %4, align 4
  br label %161

33:                                               ; preds = %22
  %34 = load i32, ptr %6, align 4, !tbaa !8
  %35 = load i32, ptr %7, align 4, !tbaa !8
  %36 = icmp eq i32 %34, %35
  br i1 %36, label %37, label %39

37:                                               ; preds = %33
  %38 = load i32, ptr %7, align 4, !tbaa !8
  store i32 %38, ptr %4, align 4
  br label %161

39:                                               ; preds = %33
  %40 = load i32, ptr %6, align 4, !tbaa !8
  %41 = load i32, ptr %7, align 4, !tbaa !8
  %42 = call i32 @Abc_LitNot(i32 noundef %41)
  %43 = icmp eq i32 %40, %42
  br i1 %43, label %44, label %45

44:                                               ; preds = %39
  store i32 0, ptr %4, align 4
  br label %161

45:                                               ; preds = %39
  %46 = load ptr, ptr %5, align 8, !tbaa !3
  %47 = getelementptr inbounds nuw %struct.Gia_Man_t_, ptr %46, i32 0, i32 17
  %48 = load i32, ptr %47, align 8, !tbaa !56
  %49 = icmp ne i32 %48, 0
  br i1 %49, label %50, label %55

50:                                               ; preds = %45
  %51 = load ptr, ptr %5, align 8, !tbaa !3
  %52 = load i32, ptr %6, align 4, !tbaa !8
  %53 = load i32, ptr %7, align 4, !tbaa !8
  %54 = call i32 @Gia_ManAppendAnd(ptr noundef %51, i32 noundef %52, i32 noundef %53)
  store i32 %54, ptr %4, align 4
  br label %161

55:                                               ; preds = %45
  %56 = load ptr, ptr %5, align 8, !tbaa !3
  %57 = getelementptr inbounds nuw %struct.Gia_Man_t_, ptr %56, i32 0, i32 4
  %58 = load i32, ptr %57, align 8, !tbaa !41
  %59 = and i32 %58, 255
  %60 = icmp eq i32 %59, 0
  br i1 %60, label %61, label %71

61:                                               ; preds = %55
  %62 = load ptr, ptr %5, align 8, !tbaa !3
  %63 = getelementptr inbounds nuw %struct.Gia_Man_t_, ptr %62, i32 0, i32 14
  %64 = call i32 @Vec_IntSize(ptr noundef %63)
  %65 = mul nsw i32 2, %64
  %66 = load ptr, ptr %5, align 8, !tbaa !3
  %67 = call i32 @Gia_ManAndNum(ptr noundef %66)
  %68 = icmp slt i32 %65, %67
  br i1 %68, label %69, label %71

69:                                               ; preds = %61
  %70 = load ptr, ptr %5, align 8, !tbaa !3
  call void @Gia_ManHashResize(ptr noundef %70)
  br label %71

71:                                               ; preds = %69, %61, %55
  %72 = load ptr, ptr %5, align 8, !tbaa !3
  %73 = getelementptr inbounds nuw %struct.Gia_Man_t_, ptr %72, i32 0, i32 15
  %74 = load i32, ptr %73, align 8, !tbaa !57
  %75 = icmp ne i32 %74, 0
  br i1 %75, label %76, label %95

76:                                               ; preds = %71
  call void @llvm.lifetime.start.p0(i64 8, ptr %8) #12
  %77 = load ptr, ptr %5, align 8, !tbaa !3
  %78 = load ptr, ptr %5, align 8, !tbaa !3
  %79 = load i32, ptr %6, align 4, !tbaa !8
  %80 = call ptr @Gia_ObjFromLit(ptr noundef %78, i32 noundef %79)
  %81 = load ptr, ptr %5, align 8, !tbaa !3
  %82 = load i32, ptr %7, align 4, !tbaa !8
  %83 = call ptr @Gia_ObjFromLit(ptr noundef %81, i32 noundef %82)
  %84 = call ptr @Gia_ManAddStrash(ptr noundef %77, ptr noundef %80, ptr noundef %83)
  store ptr %84, ptr %8, align 8, !tbaa !12
  %85 = load ptr, ptr %8, align 8, !tbaa !12
  %86 = icmp ne ptr %85, null
  br i1 %86, label %87, label %91

87:                                               ; preds = %76
  %88 = load ptr, ptr %5, align 8, !tbaa !3
  %89 = load ptr, ptr %8, align 8, !tbaa !12
  %90 = call i32 @Gia_ObjToLit(ptr noundef %88, ptr noundef %89)
  store i32 %90, ptr %4, align 4
  store i32 1, ptr %9, align 4
  br label %92

91:                                               ; preds = %76
  store i32 0, ptr %9, align 4
  br label %92

92:                                               ; preds = %91, %87
  call void @llvm.lifetime.end.p0(i64 8, ptr %8) #12
  %93 = load i32, ptr %9, align 4
  switch i32 %93, label %163 [
    i32 0, label %94
    i32 1, label %161
  ]

94:                                               ; preds = %92
  br label %95

95:                                               ; preds = %94, %71
  %96 = load i32, ptr %6, align 4, !tbaa !8
  %97 = load i32, ptr %7, align 4, !tbaa !8
  %98 = icmp sgt i32 %96, %97
  br i1 %98, label %99, label %109

99:                                               ; preds = %95
  %100 = load i32, ptr %7, align 4, !tbaa !8
  %101 = load i32, ptr %6, align 4, !tbaa !8
  %102 = xor i32 %101, %100
  store i32 %102, ptr %6, align 4, !tbaa !8
  %103 = load i32, ptr %6, align 4, !tbaa !8
  %104 = load i32, ptr %7, align 4, !tbaa !8
  %105 = xor i32 %104, %103
  store i32 %105, ptr %7, align 4, !tbaa !8
  %106 = load i32, ptr %7, align 4, !tbaa !8
  %107 = load i32, ptr %6, align 4, !tbaa !8
  %108 = xor i32 %107, %106
  store i32 %108, ptr %6, align 4, !tbaa !8
  br label %109

109:                                              ; preds = %99, %95
  call void @llvm.lifetime.start.p0(i64 8, ptr %10) #12
  %110 = load ptr, ptr %5, align 8, !tbaa !3
  %111 = load i32, ptr %6, align 4, !tbaa !8
  %112 = load i32, ptr %7, align 4, !tbaa !8
  %113 = call ptr @Gia_ManHashFind(ptr noundef %110, i32 noundef %111, i32 noundef %112, i32 noundef -1)
  store ptr %113, ptr %10, align 8, !tbaa !10
  %114 = load ptr, ptr %10, align 8, !tbaa !10
  %115 = load i32, ptr %114, align 4, !tbaa !8
  %116 = icmp ne i32 %115, 0
  br i1 %116, label %117, label %125

117:                                              ; preds = %109
  %118 = load ptr, ptr %5, align 8, !tbaa !3
  %119 = getelementptr inbounds nuw %struct.Gia_Man_t_, ptr %118, i32 0, i32 97
  %120 = load i64, ptr %119, align 8, !tbaa !51
  %121 = add i64 %120, 1
  store i64 %121, ptr %119, align 8, !tbaa !51
  %122 = load ptr, ptr %10, align 8, !tbaa !10
  %123 = load i32, ptr %122, align 4, !tbaa !8
  %124 = call i32 @Abc_Var2Lit(i32 noundef %123, i32 noundef 0)
  store i32 %124, ptr %4, align 4
  store i32 1, ptr %9, align 4
  br label %160

125:                                              ; preds = %109
  %126 = load ptr, ptr %5, align 8, !tbaa !3
  %127 = getelementptr inbounds nuw %struct.Gia_Man_t_, ptr %126, i32 0, i32 98
  %128 = load i64, ptr %127, align 8, !tbaa !52
  %129 = add i64 %128, 1
  store i64 %129, ptr %127, align 8, !tbaa !52
  %130 = load ptr, ptr %5, align 8, !tbaa !3
  %131 = getelementptr inbounds nuw %struct.Gia_Man_t_, ptr %130, i32 0, i32 13
  %132 = call i32 @Vec_IntSize(ptr noundef %131)
  %133 = load ptr, ptr %5, align 8, !tbaa !3
  %134 = getelementptr inbounds nuw %struct.Gia_Man_t_, ptr %133, i32 0, i32 13
  %135 = call i32 @Vec_IntCap(ptr noundef %134)
  %136 = icmp slt i32 %132, %135
  br i1 %136, label %137, label %144

137:                                              ; preds = %125
  %138 = load ptr, ptr %5, align 8, !tbaa !3
  %139 = load i32, ptr %6, align 4, !tbaa !8
  %140 = load i32, ptr %7, align 4, !tbaa !8
  %141 = call i32 @Gia_ManAppendAnd(ptr noundef %138, i32 noundef %139, i32 noundef %140)
  %142 = call i32 @Abc_Lit2Var(i32 noundef %141)
  %143 = load ptr, ptr %10, align 8, !tbaa !10
  store i32 %142, ptr %143, align 4, !tbaa !8
  br label %156

144:                                              ; preds = %125
  call void @llvm.lifetime.start.p0(i64 4, ptr %11) #12
  %145 = load ptr, ptr %5, align 8, !tbaa !3
  %146 = load i32, ptr %6, align 4, !tbaa !8
  %147 = load i32, ptr %7, align 4, !tbaa !8
  %148 = call i32 @Gia_ManAppendAnd(ptr noundef %145, i32 noundef %146, i32 noundef %147)
  store i32 %148, ptr %11, align 4, !tbaa !8
  %149 = load ptr, ptr %5, align 8, !tbaa !3
  %150 = load i32, ptr %6, align 4, !tbaa !8
  %151 = load i32, ptr %7, align 4, !tbaa !8
  %152 = call ptr @Gia_ManHashFind(ptr noundef %149, i32 noundef %150, i32 noundef %151, i32 noundef -1)
  store ptr %152, ptr %10, align 8, !tbaa !10
  %153 = load i32, ptr %11, align 4, !tbaa !8
  %154 = call i32 @Abc_Lit2Var(i32 noundef %153)
  %155 = load ptr, ptr %10, align 8, !tbaa !10
  store i32 %154, ptr %155, align 4, !tbaa !8
  call void @llvm.lifetime.end.p0(i64 4, ptr %11) #12
  br label %156

156:                                              ; preds = %144, %137
  %157 = load ptr, ptr %10, align 8, !tbaa !10
  %158 = load i32, ptr %157, align 4, !tbaa !8
  %159 = call i32 @Abc_Var2Lit(i32 noundef %158, i32 noundef 0)
  store i32 %159, ptr %4, align 4
  store i32 1, ptr %9, align 4
  br label %160

160:                                              ; preds = %156, %117
  call void @llvm.lifetime.end.p0(i64 8, ptr %10) #12
  br label %161

161:                                              ; preds = %160, %92, %50, %44, %37, %31, %20
  %162 = load i32, ptr %4, align 4
  ret i32 %162

163:                                              ; preds = %92
  unreachable
}