; Function Attrs: nounwind uwtable
define i32 @Gia_ManHashAnd(ptr noundef %0, i32 noundef %1, i32 noundef %2) local_unnamed_addr #2 {
  %4 = icmp slt i32 %1, 2
  br i1 %4, label %5, label %7

5:                                                ; preds = %3
  %.not72 = icmp eq i32 %1, 0
  %6 = select i1 %.not72, i32 0, i32 %2
  br label %93

7:                                                ; preds = %3
  %8 = icmp slt i32 %2, 2
  br i1 %8, label %9, label %11

9:                                                ; preds = %7
  %.not71 = icmp eq i32 %2, 0
  %10 = select i1 %.not71, i32 0, i32 %1
  br label %93

11:                                               ; preds = %7
  %12 = icmp eq i32 %1, %2
  br i1 %12, label %93, label %13

13:                                               ; preds = %11
  %14 = xor i32 %2, %1
  %15 = icmp eq i32 %14, 1
  br i1 %15, label %93, label %16

16:                                               ; preds = %13
  %17 = getelementptr inbounds nuw i8, ptr %0, i64 120
  %18 = load i32, ptr %17, align 8, !tbaa !50
  %.not = icmp eq i32 %18, 0
  br i1 %.not, label %21, label %19

19:                                               ; preds = %16
  %20 = tail call fastcc i32 @Gia_ManAppendAnd(ptr noundef nonnull %0, i32 noundef %1, i32 noundef %2)
  br label %93

21:                                               ; preds = %16
  %22 = getelementptr inbounds nuw i8, ptr %0, i64 24
  %23 = load i32, ptr %22, align 8, !tbaa !34
  %24 = and i32 %23, 255
  %25 = icmp eq i32 %24, 0
  br i1 %25, label %26, label %40

26:                                               ; preds = %21
  %27 = getelementptr i8, ptr %0, i64 100
  %.val74 = load i32, ptr %27, align 4, !tbaa !3
  %28 = shl nsw i32 %.val74, 1
  %29 = getelementptr inbounds nuw i8, ptr %0, i64 64
  %30 = load ptr, ptr %29, align 8, !tbaa !35
  %31 = getelementptr i8, ptr %30, i64 4
  %.val.i = load i32, ptr %31, align 4, !tbaa !3
  %32 = getelementptr inbounds nuw i8, ptr %0, i64 72
  %33 = load ptr, ptr %32, align 8, !tbaa !36
  %34 = getelementptr i8, ptr %33, i64 4
  %.val3.i = load i32, ptr %34, align 4, !tbaa !3
  %35 = add i32 %.val3.i, %.val.i
  %36 = xor i32 %35, -1
  %37 = add i32 %23, %36
  %38 = icmp slt i32 %28, %37
  br i1 %38, label %39, label %40

39:                                               ; preds = %26
  tail call void @Gia_ManHashResize(ptr noundef nonnull %0)
  br label %40

40:                                               ; preds = %39, %26, %21
  %41 = getelementptr inbounds nuw i8, ptr %0, i64 112
  %42 = load i32, ptr %41, align 8, !tbaa !51
  %.not68 = icmp eq i32 %42, 0
  br i1 %.not68, label %.thread, label %43

43:                                               ; preds = %40
  %44 = getelementptr i8, ptr %0, i64 32
  %.val77 = load ptr, ptr %44, align 8, !tbaa !12
  %45 = lshr i32 %1, 1
  %46 = zext nneg i32 %45 to i64
  %47 = getelementptr inbounds nuw %struct.Gia_Obj_t_, ptr %.val77, i64 %46
  %48 = and i32 %1, 1
  %49 = ptrtoint ptr %47 to i64
  %50 = zext nneg i32 %48 to i64
  %51 = xor i64 %49, %50
  %52 = inttoptr i64 %51 to ptr
  %53 = lshr i32 %2, 1
  %54 = zext nneg i32 %53 to i64
  %55 = getelementptr inbounds nuw %struct.Gia_Obj_t_, ptr %.val77, i64 %54
  %56 = and i32 %2, 1
  %57 = ptrtoint ptr %55 to i64
  %58 = zext nneg i32 %56 to i64
  %59 = xor i64 %57, %58
  %60 = inttoptr i64 %59 to ptr
  %61 = tail call fastcc ptr @Gia_ManAddStrash(ptr noundef nonnull %0, ptr noundef %52, ptr noundef %60)
  %.not69.not = icmp eq ptr %61, null
  br i1 %.not69.not, label %.thread, label %62

62:                                               ; preds = %43
  %.val75 = load ptr, ptr %44, align 8, !tbaa !12
  %63 = ptrtoint ptr %61 to i64
  %64 = and i64 %63, -2
  %65 = ptrtoint ptr %.val75 to i64
  %66 = sub i64 %64, %65
  %67 = sdiv exact i64 %66, 12
  %68 = trunc i64 %67 to i32
  %69 = trunc i64 %63 to i32
  %70 = and i32 %69, 1
  %71 = shl nsw i32 %68, 1
  %72 = or disjoint i32 %71, %70
  br label %93

.thread:                                          ; preds = %43, %40
  %spec.select = tail call i32 @llvm.umax.i32(i32 %1, i32 %2)
  %spec.select73 = tail call i32 @llvm.umin.i32(i32 %1, i32 %2)
  %73 = tail call fastcc ptr @Gia_ManHashFind(ptr noundef nonnull %0, i32 noundef %spec.select73, i32 noundef %spec.select, i32 noundef -1)
  %74 = load i32, ptr %73, align 4, !tbaa !11
  %.not70 = icmp eq i32 %74, 0
  br i1 %.not70, label %80, label %75

75:                                               ; preds = %.thread
  %76 = getelementptr inbounds nuw i8, ptr %0, i64 752
  %77 = load i64, ptr %76, align 8, !tbaa !45
  %78 = add i64 %77, 1
  store i64 %78, ptr %76, align 8, !tbaa !45
  %79 = shl nsw i32 %74, 1
  br label %93

80:                                               ; preds = %.thread
  %81 = getelementptr inbounds nuw i8, ptr %0, i64 760
  %82 = load i64, ptr %81, align 8, !tbaa !46
  %83 = add i64 %82, 1
  store i64 %83, ptr %81, align 8, !tbaa !46
  %84 = getelementptr inbounds nuw i8, ptr %0, i64 80
  %85 = getelementptr i8, ptr %0, i64 84
  %.val = load i32, ptr %85, align 4, !tbaa !3
  %.val76 = load i32, ptr %84, align 8, !tbaa !40
  %86 = icmp slt i32 %.val, %.val76
  %87 = tail call fastcc i32 @Gia_ManAppendAnd(ptr noundef nonnull %0, i32 noundef %spec.select73, i32 noundef %spec.select)
  br i1 %86, label %90, label %88

88:                                               ; preds = %80
  %89 = tail call fastcc ptr @Gia_ManHashFind(ptr noundef nonnull %0, i32 noundef %spec.select73, i32 noundef %spec.select, i32 noundef -1)
  br label %90

90:                                               ; preds = %80, %88
  %.sink81 = phi ptr [ %89, %88 ], [ %73, %80 ]
  %91 = ashr i32 %87, 1
  store i32 %91, ptr %.sink81, align 4, !tbaa !11
  %92 = and i32 %87, -2
  br label %93

93:                                               ; preds = %62, %75, %90, %13, %11, %19, %9, %5
  %.0 = phi i32 [ %6, %5 ], [ %10, %9 ], [ %20, %19 ], [ %72, %62 ], [ %1, %11 ], [ 0, %13 ], [ %79, %75 ], [ %92, %90 ]
  ret i32 %.0
}